Certificate:
    Data:
        Version: 3 (0x2)
        Serial Number: 8 (0x8)
    Signature Algorithm: sha1WithRSAEncryption
        Issuer: O=UTM (0000000000000), OU=UTM FCIM Signing CA Curs eGov, CN=UTM FCIM Signing CA
        Validity
            Not Before: Oct  9 16:06:50 2020 GMT
            Not After : Oct  8 16:06:50 2025 GMT
        Subject: O=UTM, OU=UMT FCIM, CN=Dumitru Melniciuc
        Subject Public Key Info:
            Public Key Algorithm: rsaEncryption
                Public-Key: (2048 bit)
                Modulus:
                    00:b4:69:33:56:16:d6:1b:38:48:eb:6f:d0:d1:57:
                    e2:5a:5b:9a:33:24:17:a1:55:7b:1e:56:9e:d2:3a:
                    b9:65:de:f4:ce:d1:95:eb:12:2f:c3:aa:a0:27:2e:
                    ab:80:d0:13:a5:d3:a1:44:49:b7:c3:63:97:f7:81:
                    43:83:21:6e:82:5f:38:93:fb:37:6e:42:cc:01:dd:
                    f0:72:e0:5b:15:15:bd:ea:cd:50:76:6e:bf:69:b5:
                    7b:bc:b7:76:c1:7e:6c:2e:13:93:39:7d:2c:62:bb:
                    f1:98:ce:37:d4:29:e3:ad:c9:28:8b:33:1f:a3:ed:
                    c1:ce:f4:6d:80:d6:16:98:25:4b:c0:aa:c7:cb:23:
                    df:d7:d1:a4:ec:1d:98:a6:f6:34:09:b2:66:65:64:
                    8f:62:d8:59:1f:b8:ce:2d:d8:79:57:6f:22:83:cf:
                    df:91:fe:6b:37:56:f9:cf:fd:a7:8d:d1:48:a4:71:
                    0e:0b:f8:48:95:8f:6d:d5:e1:2c:c7:ed:45:72:fe:
                    81:38:34:90:4e:07:1d:27:ad:77:61:1a:7c:d4:69:
                    cd:ee:0c:58:3f:2e:b4:1d:5e:5a:68:08:03:3e:da:
                    8e:8e:cf:60:5a:91:68:cf:e3:3f:59:5a:6f:4c:68:
                    d1:50:99:4f:f3:ce:fa:b8:81:6b:e9:66:e8:32:ff:
                    10:95
                Exponent: 65537 (0x10001)
        X509v3 extensions:
            X509v3 Key Usage: critical
                Non Repudiation
            X509v3 Basic Constraints: 
                CA:FALSE
            X509v3 Subject Key Identifier: 
                F8:83:B9:A9:8A:E1:8D:E0:1D:36:A1:3E:F0:0F:99:42:D0:AD:55:3F
            X509v3 Authority Key Identifier: 
                keyid:19:26:36:39:BC:B9:17:8B:72:25:D0:0B:53:77:58:31:7E:30:0C:5A

            X509v3 Certificate Policies: 
                Policy: 1.2.498.3.100.1.1
                  CPS: http://my.host.name/

            X509v3 CRL Distribution Points: 

                Full Name:
                  URI:http://myhost.com/myca.crl

            Authority Information Access: 
                CA Issuers - URI:http://myhost.com/myca.crt

            X509v3 Extended Key Usage: 
                E-mail Protection, TLS Web Client Authentication
            X509v3 Subject Alternative Name: 
                email:d_melniciuc@gmail.com
    Signature Algorithm: sha1WithRSAEncryption
         3e:7b:dd:3a:fe:e3:01:2b:bf:63:bf:7c:b7:6d:d2:fd:61:02:
         6d:b2:67:37:84:4c:3d:21:0e:a6:24:ca:fe:af:c1:8b:37:cf:
         20:88:fd:0e:41:c5:a2:d5:49:a6:85:f8:fb:30:67:2c:1b:f6:
         83:ae:f4:42:bb:72:a6:11:49:4d:2a:f5:22:dd:da:b4:2c:ab:
         73:af:f1:d5:aa:57:62:89:db:e0:d0:fd:9a:48:db:7e:c3:22:
         bd:7a:ec:1a:ed:53:5f:0f:f2:a3:81:bd:a1:93:0e:07:47:3b:
         c1:cf:b8:73:b1:b2:41:51:2e:04:c9:bd:37:44:90:ec:06:0a:
         a9:0b:30:f2:f6:09:23:f3:e2:5c:11:b8:7c:71:be:7c:95:b2:
         b5:0a:9c:14:6a:4a:8f:2c:d2:4c:b3:2c:af:d2:21:b6:6d:cc:
         ad:88:26:be:67:47:52:73:65:87:bf:9f:da:68:ca:48:0a:91:
         f9:60:46:1d:f4:9e:3f:17:33:2e:39:8b:17:54:17:20:9b:ae:
         05:6a:8e:fa:ca:60:6d:62:6e:fb:0b:da:96:db:09:5d:0b:cc:
         16:08:19:5a:4a:b2:73:8e:a5:85:48:37:34:a2:ff:e9:8d:ed:
         cb:09:81:9e:c3:db:b6:ff:15:d7:4b:0c:62:47:8d:0c:f9:e6:
         dd:28:84:98:83:b2:c5:44:4b:cf:04:20:dd:a2:57:41:38:30:
         07:67:0a:a9:5f:34:64:12:e4:9c:a5:03:47:c7:02:9d:69:e6:
         c3:73:0c:2b:b8:8c:2c:dc:de:d8:77:08:2d:de:db:dd:54:f1:
         aa:1f:17:e9:bc:58:25:e5:59:0c:f4:4b:4c:23:14:7a:04:0c:
         ca:87:62:a5:77:de:e7:b5:19:fa:29:c6:69:60:08:a9:58:05:
         4b:0f:27:5b:82:c5:dc:fd:55:97:d4:bb:ad:d5:3a:48:46:2d:
         a5:cc:d9:88:7a:ba:5a:d1:a6:08:13:f1:5c:25:e3:bb:4f:ad:
         d0:1b:8a:97:74:aa:77:bf:dc:9a:8d:ed:29:b9:1c:92:d5:58:
         22:52:d7:0b:53:1a:b6:a8:96:1e:92:35:41:8d:ac:e4:36:73:
         50:eb:f1:fa:bf:5c:a1:58:43:64:b7:8d:3e:4f:1f:29:cb:27:
         c8:75:fa:fa:2c:4a:89:25:c7:ec:66:cb:f2:bf:81:56:c4:02:
         9b:55:3e:83:ca:b4:a2:39:1c:90:61:50:e4:66:60:8f:7f:8b:
         22:df:49:62:ce:18:cc:97:94:bc:c8:51:44:5e:b6:c1:bf:51:
         2b:ed:e6:88:18:b6:b2:ff:ed:9f:47:68:64:de:09:14:f4:39:
         33:11:c3:06:c7:3b:b8:bf
-----BEGIN CERTIFICATE-----
MIIFXTCCA0WgAwIBAgIBCDANBgkqhkiG9w0BAQUFADBkMRwwGgYDVQQKDBNVVE0g
KDAwMDAwMDAwMDAwMDApMSYwJAYDVQQLDB1VVE0gRkNJTSBTaWduaW5nIENBIEN1
cnMgZUdvdjEcMBoGA1UEAwwTVVRNIEZDSU0gU2lnbmluZyBDQTAeFw0yMDEwMDkx
NjA2NTBaFw0yNTEwMDgxNjA2NTBaMD0xDDAKBgNVBAoMA1VUTTERMA8GA1UECwwI
VU1UIEZDSU0xGjAYBgNVBAMMEUR1bWl0cnUgTWVsbmljaXVjMIIBIjANBgkqhkiG
9w0BAQEFAAOCAQ8AMIIBCgKCAQEAtGkzVhbWGzhI62/Q0VfiWluaMyQXoVV7Hlae
0jq5Zd70ztGV6xIvw6qgJy6rgNATpdOhREm3w2OX94FDgyFugl84k/s3bkLMAd3w
cuBbFRW96s1Qdm6/abV7vLd2wX5sLhOTOX0sYrvxmM431CnjrckoizMfo+3BzvRt
gNYWmCVLwKrHyyPf19Gk7B2YpvY0CbJmZWSPYthZH7jOLdh5V28ig8/fkf5rN1b5
z/2njdFIpHEOC/hIlY9t1eEsx+1Fcv6BODSQTgcdJ613YRp81GnN7gxYPy60HV5a
aAgDPtqOjs9gWpFoz+M/WVpvTGjRUJlP8876uIFr6WboMv8QlQIDAQABo4IBPzCC
ATswDgYDVR0PAQH/BAQDAgZAMAkGA1UdEwQCMAAwHQYDVR0OBBYEFPiDuamK4Y3g
HTahPvAPmULQrVU/MB8GA1UdIwQYMBaAFBkmNjm8uReLciXQC1N3WDF+MAxaMDgG
A1UdIAQxMC8wLQYHKoNyA2QBATAiMCAGCCsGAQUFBwIBFhRodHRwOi8vbXkuaG9z
dC5uYW1lLzArBgNVHR8EJDAiMCCgHqAchhpodHRwOi8vbXlob3N0LmNvbS9teWNh
LmNybDA2BggrBgEFBQcBAQQqMCgwJgYIKwYBBQUHMAKGGmh0dHA6Ly9teWhvc3Qu
Y29tL215Y2EuY3J0MB0GA1UdJQQWMBQGCCsGAQUFBwMEBggrBgEFBQcDAjAgBgNV
HREEGTAXgRVkX21lbG5pY2l1Y0BnbWFpbC5jb20wDQYJKoZIhvcNAQEFBQADggIB
AD573Tr+4wErv2O/fLdt0v1hAm2yZzeETD0hDqYkyv6vwYs3zyCI/Q5BxaLVSaaF
+PswZywb9oOu9EK7cqYRSU0q9SLd2rQsq3Ov8dWqV2KJ2+DQ/ZpI237DIr167Brt
U18P8qOBvaGTDgdHO8HPuHOxskFRLgTJvTdEkOwGCqkLMPL2CSPz4lwRuHxxvnyV
srUKnBRqSo8s0kyzLK/SIbZtzK2IJr5nR1JzZYe/n9poykgKkflgRh30nj8XMy45
ixdUFyCbrgVqjvrKYG1ibvsL2pbbCV0LzBYIGVpKsnOOpYVINzSi/+mN7csJgZ7D
27b/FddLDGJHjQz55t0ohJiDssVES88EIN2iV0E4MAdnCqlfNGQS5JylA0fHAp1p
5sNzDCu4jCzc3th3CC3e291U8aofF+m8WCXlWQz0S0wjFHoEDMqHYqV33ue1Gfop
xmlgCKlYBUsPJ1uCxdz9VZfUu63VOkhGLaXM2Yh6ulrRpggT8Vwl47tPrdAbipd0
qne/3JqN7Sm5HJLVWCJS1wtTGraolh6SNUGNrOQ2c1Dr8fq/XKFYQ2S3jT5PHynL
J8h1+vosSoklx+xmy/K/gVbEAptVPoPKtKI5HJBhUORmYI9/iyLfSWLOGMyXlLzI
UURetsG/USvt5ogYtrL/7Z9HaGTeCRT0OTMRwwbHO7i/
-----END CERTIFICATE-----
