Certificate:
    Data:
        Version: 3 (0x2)
        Serial Number: 2 (0x2)
    Signature Algorithm: sha1WithRSAEncryption
        Issuer: O=UTM (0000000000000), OU=UTM FCIM Signing CA Curs eGov, CN=UTM FCIM Signing CA
        Validity
            Not Before: Sep 29 10:02:45 2020 GMT
            Not After : Sep 28 10:02:45 2025 GMT
        Subject: O=UTM, OU=UMT FCIM, CN=Dumitru Melniciuc
        Subject Public Key Info:
            Public Key Algorithm: rsaEncryption
                Public-Key: (2048 bit)
                Modulus:
                    00:b4:69:33:56:16:d6:1b:38:48:eb:6f:d0:d1:57:
                    e2:5a:5b:9a:33:24:17:a1:55:7b:1e:56:9e:d2:3a:
                    b9:65:de:f4:ce:d1:95:eb:12:2f:c3:aa:a0:27:2e:
                    ab:80:d0:13:a5:d3:a1:44:49:b7:c3:63:97:f7:81:
                    43:83:21:6e:82:5f:38:93:fb:37:6e:42:cc:01:dd:
                    f0:72:e0:5b:15:15:bd:ea:cd:50:76:6e:bf:69:b5:
                    7b:bc:b7:76:c1:7e:6c:2e:13:93:39:7d:2c:62:bb:
                    f1:98:ce:37:d4:29:e3:ad:c9:28:8b:33:1f:a3:ed:
                    c1:ce:f4:6d:80:d6:16:98:25:4b:c0:aa:c7:cb:23:
                    df:d7:d1:a4:ec:1d:98:a6:f6:34:09:b2:66:65:64:
                    8f:62:d8:59:1f:b8:ce:2d:d8:79:57:6f:22:83:cf:
                    df:91:fe:6b:37:56:f9:cf:fd:a7:8d:d1:48:a4:71:
                    0e:0b:f8:48:95:8f:6d:d5:e1:2c:c7:ed:45:72:fe:
                    81:38:34:90:4e:07:1d:27:ad:77:61:1a:7c:d4:69:
                    cd:ee:0c:58:3f:2e:b4:1d:5e:5a:68:08:03:3e:da:
                    8e:8e:cf:60:5a:91:68:cf:e3:3f:59:5a:6f:4c:68:
                    d1:50:99:4f:f3:ce:fa:b8:81:6b:e9:66:e8:32:ff:
                    10:95
                Exponent: 65537 (0x10001)
        X509v3 extensions:
            X509v3 Key Usage: critical
                Non Repudiation
            X509v3 Basic Constraints: 
                CA:FALSE
            X509v3 Subject Key Identifier: 
                F8:83:B9:A9:8A:E1:8D:E0:1D:36:A1:3E:F0:0F:99:42:D0:AD:55:3F
            X509v3 Authority Key Identifier: 
                keyid:DC:D1:37:E8:D2:15:E3:8B:1B:1B:11:32:69:2F:0A:2C:5F:87:78:B4

            X509v3 Certificate Policies: 
                Policy: 1.2.498.3.100.1.1
                  CPS: http://my.host.name/

            X509v3 CRL Distribution Points: 

                Full Name:
                  URI:http://myhost.com/myca.crl

            Authority Information Access: 
                CA Issuers - URI:http://myhost.com/myca.crt

            X509v3 Extended Key Usage: 
                E-mail Protection, TLS Web Client Authentication
            X509v3 Subject Alternative Name: 
                email:d_melniciuc@gmail.com
    Signature Algorithm: sha1WithRSAEncryption
         97:d4:0e:a2:a6:fd:a4:59:fe:f1:7a:b5:8f:a7:8c:66:2e:d3:
         0f:05:8c:a4:2e:06:70:78:3a:1a:fc:75:e8:cd:41:e6:8b:c9:
         20:93:a9:b9:96:cc:11:e9:d4:08:c0:03:77:3a:44:5f:a8:d8:
         90:1b:37:5d:3d:39:34:4f:43:44:aa:7b:8d:e6:8b:fa:bf:91:
         b5:59:80:19:3a:d8:e3:f4:45:6a:21:d6:68:3d:40:49:49:c2:
         22:d2:ff:4b:7d:30:0f:e3:a9:d6:95:69:8e:02:b9:77:4b:13:
         86:35:4f:69:89:36:d7:b8:57:94:2b:5a:e7:fb:8a:83:5d:e8:
         72:5e:f5:ab:b6:29:2e:54:7d:65:3e:51:ab:55:de:b8:c1:2b:
         84:a2:df:5c:b0:15:73:ec:50:d2:0c:92:fa:ed:5a:a4:f5:11:
         eb:74:77:1a:cf:d2:d4:cd:a7:9d:fe:ae:06:64:7d:9e:65:96:
         e9:e5:82:f1:78:75:c1:96:0c:a1:ec:9b:34:d1:42:7b:cc:06:
         61:f9:e8:78:72:b2:93:38:cd:60:91:01:5f:27:2e:bd:fb:b8:
         d2:04:94:81:02:57:c3:a9:4e:d0:e9:77:8e:3c:9e:ee:34:4f:
         29:02:27:1b:1b:2d:c1:19:81:28:95:f3:70:e6:52:0b:67:71:
         57:4c:49:61:69:15:0b:49:19:ed:c0:6d:24:57:d5:fc:da:05:
         ab:f1:7e:82:1d:28:20:c4:fb:ce:a6:3c:9d:33:c8:b3:62:29:
         d6:d5:90:d5:97:ca:e6:59:af:4e:09:b3:76:3b:a0:6c:47:3f:
         5b:e2:aa:3f:dd:38:fd:7a:df:d1:e3:fa:92:c5:05:a1:fe:dd:
         09:c3:bc:10:b6:57:57:71:24:19:71:23:8d:b1:99:63:88:11:
         fb:c7:4d:ec:8a:4b:7f:99:30:ef:a2:aa:9d:5d:43:6a:19:f7:
         ba:e9:56:2f:7a:ae:26:c8:0e:43:e5:29:d9:94:02:9e:bb:b9:
         f1:33:c0:63:7d:15:db:5e:69:f9:a9:32:09:8c:b1:52:0b:b6:
         74:cf:af:c8:08:96:58:ce:8c:41:f4:7b:e2:87:45:42:27:8f:
         14:c7:62:be:a4:a9:e7:eb:89:a5:f0:34:09:90:0a:b5:17:00:
         45:b5:c9:cb:95:65:e8:c9:d1:4a:1d:76:09:34:46:12:a2:eb:
         38:2d:07:7b:2c:6a:10:6e:b9:ef:28:29:7b:0f:8c:e9:ea:05:
         30:83:a7:79:dd:89:ca:76:af:8f:a7:10:32:92:e0:74:ee:c7:
         a2:53:8c:6a:ec:4d:e8:90:69:74:0d:b3:0d:5e:31:a4:38:49:
         0c:ac:78:8a:e8:b4:b1:ea
-----BEGIN CERTIFICATE-----
MIIFXTCCA0WgAwIBAgIBAjANBgkqhkiG9w0BAQUFADBkMRwwGgYDVQQKDBNVVE0g
KDAwMDAwMDAwMDAwMDApMSYwJAYDVQQLDB1VVE0gRkNJTSBTaWduaW5nIENBIEN1
cnMgZUdvdjEcMBoGA1UEAwwTVVRNIEZDSU0gU2lnbmluZyBDQTAeFw0yMDA5Mjkx
MDAyNDVaFw0yNTA5MjgxMDAyNDVaMD0xDDAKBgNVBAoMA1VUTTERMA8GA1UECwwI
VU1UIEZDSU0xGjAYBgNVBAMMEUR1bWl0cnUgTWVsbmljaXVjMIIBIjANBgkqhkiG
9w0BAQEFAAOCAQ8AMIIBCgKCAQEAtGkzVhbWGzhI62/Q0VfiWluaMyQXoVV7Hlae
0jq5Zd70ztGV6xIvw6qgJy6rgNATpdOhREm3w2OX94FDgyFugl84k/s3bkLMAd3w
cuBbFRW96s1Qdm6/abV7vLd2wX5sLhOTOX0sYrvxmM431CnjrckoizMfo+3BzvRt
gNYWmCVLwKrHyyPf19Gk7B2YpvY0CbJmZWSPYthZH7jOLdh5V28ig8/fkf5rN1b5
z/2njdFIpHEOC/hIlY9t1eEsx+1Fcv6BODSQTgcdJ613YRp81GnN7gxYPy60HV5a
aAgDPtqOjs9gWpFoz+M/WVpvTGjRUJlP8876uIFr6WboMv8QlQIDAQABo4IBPzCC
ATswDgYDVR0PAQH/BAQDAgZAMAkGA1UdEwQCMAAwHQYDVR0OBBYEFPiDuamK4Y3g
HTahPvAPmULQrVU/MB8GA1UdIwQYMBaAFNzRN+jSFeOLGxsRMmkvCixfh3i0MDgG
A1UdIAQxMC8wLQYHKoNyA2QBATAiMCAGCCsGAQUFBwIBFhRodHRwOi8vbXkuaG9z
dC5uYW1lLzArBgNVHR8EJDAiMCCgHqAchhpodHRwOi8vbXlob3N0LmNvbS9teWNh
LmNybDA2BggrBgEFBQcBAQQqMCgwJgYIKwYBBQUHMAKGGmh0dHA6Ly9teWhvc3Qu
Y29tL215Y2EuY3J0MB0GA1UdJQQWMBQGCCsGAQUFBwMEBggrBgEFBQcDAjAgBgNV
HREEGTAXgRVkX21lbG5pY2l1Y0BnbWFpbC5jb20wDQYJKoZIhvcNAQEFBQADggIB
AJfUDqKm/aRZ/vF6tY+njGYu0w8FjKQuBnB4Ohr8dejNQeaLySCTqbmWzBHp1AjA
A3c6RF+o2JAbN109OTRPQ0Sqe43mi/q/kbVZgBk62OP0RWoh1mg9QElJwiLS/0t9
MA/jqdaVaY4CuXdLE4Y1T2mJNte4V5QrWuf7ioNd6HJe9au2KS5UfWU+UatV3rjB
K4Si31ywFXPsUNIMkvrtWqT1Eet0dxrP0tTNp53+rgZkfZ5llunlgvF4dcGWDKHs
mzTRQnvMBmH56HhyspM4zWCRAV8nLr37uNIElIECV8OpTtDpd448nu40TykCJxsb
LcEZgSiV83DmUgtncVdMSWFpFQtJGe3AbSRX1fzaBavxfoIdKCDE+86mPJ0zyLNi
KdbVkNWXyuZZr04Js3Y7oGxHP1viqj/dOP1639Hj+pLFBaH+3QnDvBC2V1dxJBlx
I42xmWOIEfvHTeyKS3+ZMO+iqp1dQ2oZ97rpVi96ribIDkPlKdmUAp67ufEzwGN9
FdteafmpMgmMsVILtnTPr8gIlljOjEH0e+KHRUInjxTHYr6kqefriaXwNAmQCrUX
AEW1ycuVZejJ0Uoddgk0RhKi6zgtB3ssahBuue8oKXsPjOnqBTCDp3ndicp2r4+n
EDKS4HTux6JTjGrsTeiQaXQNsw1eMaQ4SQyseIrotLHq
-----END CERTIFICATE-----
