Certificate:
    Data:
        Version: 3 (0x2)
        Serial Number: 2 (0x2)
    Signature Algorithm: sha1WithRSAEncryption
        Issuer: O=UTM (0000000000000), OU=UTM Root CA Curs eGov, CN=UTM Root CA
        Validity
            Not Before: Sep 29 09:41:08 2020 GMT
            Not After : Sep 29 09:41:08 2030 GMT
        Subject: O=UTM (0000000000000), OU=UTM FCIM Signing CA Curs eGov, CN=UTM FCIM Signing CA
        Subject Public Key Info:
            Public Key Algorithm: rsaEncryption
                Public-Key: (4096 bit)
                Modulus:
                    00:b4:24:c3:4d:12:f8:b8:ae:7f:d0:4d:1a:05:4d:
                    53:63:3a:20:51:f2:b8:74:79:f0:1a:b5:9a:6d:17:
                    c4:6e:35:14:ca:4f:1a:5a:39:e2:c8:8c:82:fc:81:
                    e8:7f:e0:80:6a:7d:1e:19:07:80:ba:ea:a8:3c:70:
                    67:08:1e:5d:99:c6:9c:64:98:76:4e:49:3a:83:4f:
                    17:37:5f:d6:4d:19:67:79:bb:06:86:45:30:c1:a7:
                    79:c0:9b:db:07:7f:5a:9b:ac:59:bd:b3:7c:6d:5a:
                    24:10:72:c5:71:7d:9a:10:dc:b7:05:98:dc:6a:b7:
                    fa:53:e0:83:09:e5:20:4b:04:b2:05:fc:0a:fc:fc:
                    30:9b:04:b3:d6:eb:e8:f8:db:27:b7:47:8d:91:7f:
                    ff:80:35:a2:6e:84:3c:99:5d:f3:c3:70:19:32:76:
                    81:b4:cc:07:eb:fd:b0:3e:11:cf:07:21:1f:6d:91:
                    2b:a5:32:86:22:5e:8c:77:5a:45:5e:5d:59:39:9d:
                    81:56:8b:04:ab:ed:89:8f:b8:bf:7d:cb:ce:ed:82:
                    9b:99:b7:d3:65:1c:c4:c2:96:03:a7:69:e1:0c:8e:
                    5d:53:da:1b:4b:b5:a5:62:aa:4b:a1:e0:a0:12:44:
                    de:21:ad:4b:fd:5a:b4:6c:89:e1:a1:dc:cd:e0:fe:
                    b2:8d:dd:b5:da:c2:40:b9:02:c4:e0:da:d2:4e:ea:
                    8d:1d:44:ff:3f:12:e4:1d:57:d7:6f:8c:09:95:ff:
                    69:3a:76:f2:0a:62:0a:7f:df:df:1d:77:db:cf:ae:
                    ea:c6:f3:0e:8e:d6:57:fd:61:2d:0a:78:1a:0e:60:
                    65:0c:a8:7b:ad:62:d3:79:a7:09:79:0f:50:b8:d8:
                    67:33:55:b4:19:e1:cb:7d:74:18:f1:73:70:8a:31:
                    66:ec:cd:af:f2:71:a7:ba:a9:3f:12:3f:f6:35:5e:
                    67:19:3b:7b:46:83:36:11:84:ee:4e:2f:da:08:ff:
                    8a:1d:fb:6d:a3:6d:24:95:7d:88:5d:79:03:db:c5:
                    f0:2c:c4:5a:5a:20:2d:63:3d:c2:d1:d2:85:9c:15:
                    02:1d:07:53:87:fc:f0:c8:fc:a6:f8:b6:f7:c8:53:
                    b1:ee:8f:16:74:da:03:b5:d6:5f:cb:dc:37:e5:97:
                    9c:88:a6:93:db:20:22:b9:a1:26:01:34:3e:85:75:
                    88:15:2a:9e:6f:e4:cc:62:52:4f:f9:6d:36:f6:1b:
                    74:ef:c8:f8:e5:6a:2a:3c:fa:88:24:8f:91:9b:4e:
                    0d:e2:42:1f:ef:32:77:97:85:a5:71:98:32:33:23:
                    2a:48:e2:5e:32:58:af:b5:1a:19:be:93:44:e2:e4:
                    ab:60:dd
                Exponent: 65537 (0x10001)
        X509v3 extensions:
            X509v3 Key Usage: critical
                Certificate Sign, CRL Sign
            X509v3 Basic Constraints: critical
                CA:TRUE, pathlen:2
            X509v3 Subject Key Identifier: 
                DC:D1:37:E8:D2:15:E3:8B:1B:1B:11:32:69:2F:0A:2C:5F:87:78:B4
            X509v3 Authority Key Identifier: 
                keyid:71:FB:20:F9:E0:83:CE:79:FA:59:2D:7C:3F:FC:8B:0D:81:35:80:20

            X509v3 CRL Distribution Points: 

                Full Name:
                  URI:http://myhost.com/myroot.crl

            Authority Information Access: 
                CA Issuers - URI:http://myhost.com/myroot.crt

    Signature Algorithm: sha1WithRSAEncryption
         99:bd:d8:60:3f:44:5f:ea:2e:ce:b2:28:63:bf:2f:c2:88:c3:
         d0:34:4f:d2:7c:a9:fb:5e:3d:35:00:36:92:6b:a0:81:d6:91:
         cc:61:37:0e:fa:8d:75:71:43:78:75:08:9d:c0:b8:8a:ed:a1:
         61:4c:a3:93:38:0c:a4:13:30:b2:ff:fa:eb:85:7e:fe:fa:47:
         ed:ee:8c:93:50:2d:8d:c0:8e:3a:0d:d2:93:6e:0e:e3:36:f5:
         dd:07:2e:ad:8d:e8:0d:0c:a5:f2:63:60:9f:4b:d9:38:b6:db:
         71:e6:f3:3a:29:40:af:1a:b2:86:0d:09:4a:52:40:8c:8e:dd:
         fc:74:74:ae:23:e7:fc:45:1d:b9:bd:ee:ed:b6:ad:fa:0f:6c:
         c3:02:51:55:e2:8f:4c:1b:9b:b5:b0:66:3a:89:22:53:a4:88:
         a2:8b:2f:8a:7a:4c:1b:a3:ad:e3:a9:05:bb:7e:13:b3:d4:0c:
         4f:60:6c:63:8e:f6:b8:90:3b:22:9f:69:23:16:98:8f:d5:55:
         af:88:5b:28:7b:cc:9b:e6:5e:07:68:99:e8:e5:5f:37:47:3f:
         57:ef:65:a5:53:d6:df:2e:ef:70:d1:4e:1e:4c:53:23:6a:ee:
         44:8f:88:70:d5:e9:44:05:00:8e:2a:68:9f:47:3b:49:85:23:
         2e:8a:df:72:8f:ba:cf:d3:99:83:da:90:3d:2e:39:1d:40:8b:
         e4:6c:87:e5:68:3d:f9:69:86:db:e9:7f:e8:be:2c:4d:8b:ee:
         60:6b:3f:30:ae:5c:76:3f:03:7d:36:d3:ab:31:16:c9:7a:b5:
         31:55:ab:20:e1:73:c7:aa:71:32:67:99:bc:1c:4b:e9:85:23:
         e3:be:5e:bc:bc:29:36:27:dd:4d:06:d8:7d:d0:40:c3:c4:86:
         6f:b7:86:3f:d0:9f:cc:55:b5:55:fa:e1:95:5f:35:98:ac:94:
         e6:45:3a:06:78:25:2b:98:66:da:5c:07:15:51:b4:26:ec:b9:
         9f:e9:32:1f:88:49:a2:63:d4:64:5a:e9:1f:bd:e6:b7:65:0f:
         0d:19:14:5e:fb:8f:c2:22:05:f8:44:46:b1:6e:fa:57:a1:7a:
         04:5d:b9:fe:c4:3e:14:36:52:6e:34:6b:85:5f:86:31:0e:6b:
         20:32:12:79:98:99:75:39:5b:ff:7c:d9:03:1f:65:bd:d4:96:
         86:f5:1f:82:27:77:ff:6e:84:39:34:57:22:da:1c:8c:a0:a9:
         e1:66:0d:b7:62:97:5f:46:7e:dd:8c:12:10:d2:ae:a1:7a:dc:
         c3:87:29:47:7b:62:b0:85:d5:b5:50:c2:56:2a:1a:9e:11:8b:
         e1:cc:c0:96:66:eb:71:e6
-----BEGIN CERTIFICATE-----
MIIGBDCCA+ygAwIBAgIBAjANBgkqhkiG9w0BAQUFADBUMRwwGgYDVQQKDBNVVE0g
KDAwMDAwMDAwMDAwMDApMR4wHAYDVQQLDBVVVE0gUm9vdCBDQSBDdXJzIGVHb3Yx
FDASBgNVBAMMC1VUTSBSb290IENBMB4XDTIwMDkyOTA5NDEwOFoXDTMwMDkyOTA5
NDEwOFowZDEcMBoGA1UECgwTVVRNICgwMDAwMDAwMDAwMDAwKTEmMCQGA1UECwwd
VVRNIEZDSU0gU2lnbmluZyBDQSBDdXJzIGVHb3YxHDAaBgNVBAMME1VUTSBGQ0lN
IFNpZ25pbmcgQ0EwggIiMA0GCSqGSIb3DQEBAQUAA4ICDwAwggIKAoICAQC0JMNN
Evi4rn/QTRoFTVNjOiBR8rh0efAatZptF8RuNRTKTxpaOeLIjIL8geh/4IBqfR4Z
B4C66qg8cGcIHl2ZxpxkmHZOSTqDTxc3X9ZNGWd5uwaGRTDBp3nAm9sHf1qbrFm9
s3xtWiQQcsVxfZoQ3LcFmNxqt/pT4IMJ5SBLBLIF/Ar8/DCbBLPW6+j42ye3R42R
f/+ANaJuhDyZXfPDcBkydoG0zAfr/bA+Ec8HIR9tkSulMoYiXox3WkVeXVk5nYFW
iwSr7YmPuL99y87tgpuZt9NlHMTClgOnaeEMjl1T2htLtaViqkuh4KASRN4hrUv9
WrRsieGh3M3g/rKN3bXawkC5AsTg2tJO6o0dRP8/EuQdV9dvjAmV/2k6dvIKYgp/
398dd9vPrurG8w6O1lf9YS0KeBoOYGUMqHutYtN5pwl5D1C42GczVbQZ4ct9dBjx
c3CKMWbsza/ycae6qT8SP/Y1XmcZO3tGgzYRhO5OL9oI/4od+22jbSSVfYhdeQPb
xfAsxFpaIC1jPcLR0oWcFQIdB1OH/PDI/Kb4tvfIU7HujxZ02gO11l/L3Dfll5yI
ppPbICK5oSYBND6FdYgVKp5v5MxiUk/5bTb2G3TvyPjlaio8+ogkj5GbTg3iQh/v
MneXhaVxmDIzIypI4l4yWK+1Ghm+k0Ti5Ktg3QIDAQABo4HQMIHNMA4GA1UdDwEB
/wQEAwIBBjASBgNVHRMBAf8ECDAGAQH/AgECMB0GA1UdDgQWBBTc0Tfo0hXjixsb
ETJpLwosX4d4tDAfBgNVHSMEGDAWgBRx+yD54IPOefpZLXw//IsNgTWAIDAtBgNV
HR8EJjAkMCKgIKAehhxodHRwOi8vbXlob3N0LmNvbS9teXJvb3QuY3JsMDgGCCsG
AQUFBwEBBCwwKjAoBggrBgEFBQcwAoYcaHR0cDovL215aG9zdC5jb20vbXlyb290
LmNydDANBgkqhkiG9w0BAQUFAAOCAgEAmb3YYD9EX+ouzrIoY78vwojD0DRP0nyp
+149NQA2kmuggdaRzGE3DvqNdXFDeHUIncC4iu2hYUyjkzgMpBMwsv/664V+/vpH
7e6Mk1AtjcCOOg3Sk24O4zb13QcurY3oDQyl8mNgn0vZOLbbcebzOilArxqyhg0J
SlJAjI7d/HR0riPn/EUdub3u7bat+g9swwJRVeKPTBubtbBmOokiU6SIoosvinpM
G6Ot46kFu34Ts9QMT2BsY472uJA7Ip9pIxaYj9VVr4hbKHvMm+ZeB2iZ6OVfN0c/
V+9lpVPW3y7vcNFOHkxTI2ruRI+IcNXpRAUAjipon0c7SYUjLorfco+6z9OZg9qQ
PS45HUCL5GyH5Wg9+WmG2+l/6L4sTYvuYGs/MK5cdj8DfTbTqzEWyXq1MVWrIOFz
x6pxMmeZvBxL6YUj475evLwpNifdTQbYfdBAw8SGb7eGP9CfzFW1VfrhlV81mKyU
5kU6BnglK5hm2lwHFVG0Juy5n+kyH4hJomPUZFrpH73mt2UPDRkUXvuPwiIF+ERG
sW76V6F6BF25/sQ+FDZSbjRrhV+GMQ5rIDISeZiZdTlb/3zZAx9lvdSWhvUfgid3
/26EOTRXItocjKCp4WYNt2KXX0Z+3YwSENKuoXrcw4cpR3tisIXVtVDCVioanhGL
4czAlmbrceY=
-----END CERTIFICATE-----
