Certificate:
    Data:
        Version: 3 (0x2)
        Serial Number: 1 (0x1)
    Signature Algorithm: sha1WithRSAEncryption
        Issuer: O=UTM (0000000000000), OU=UTM Root CA Curs eGov, CN=UTM Root CA
        Validity
            Not Before: Sep 29 09:18:46 2020 GMT
            Not After : Sep 29 09:18:46 2030 GMT
        Subject: O=UTM (0000000000000), OU=UTM Root CA Curs eGov, CN=UTM Root CA
        Subject Public Key Info:
            Public Key Algorithm: rsaEncryption
                Public-Key: (4096 bit)
                Modulus:
                    00:a9:94:86:41:e5:8e:f9:cd:2b:33:db:c6:50:02:
                    97:1b:58:b1:f0:48:5a:cb:52:e1:86:a8:f9:4c:79:
                    44:00:42:1b:f9:51:d0:3c:12:9f:24:15:54:78:91:
                    2d:2d:5f:f3:d0:17:ba:a4:6f:cb:a6:8e:17:73:c2:
                    ac:a1:29:05:6b:be:b0:1b:f3:d5:4d:0e:0c:da:71:
                    49:67:7a:78:fd:11:ae:28:7e:6f:6a:74:90:d5:ff:
                    c0:6d:53:15:8b:b6:81:91:31:29:82:5d:83:98:e1:
                    37:aa:56:23:de:29:dd:e3:94:86:1a:37:58:47:da:
                    4b:23:e9:ff:02:20:34:3b:36:c0:71:ef:4c:18:42:
                    4b:2e:01:9b:95:f3:98:a2:8c:06:f9:b1:c0:5c:30:
                    4c:95:db:db:57:c3:07:5a:5e:83:59:1d:55:32:af:
                    a7:31:d7:a5:25:e8:50:22:87:15:aa:cd:f3:38:2f:
                    fa:aa:af:e3:e3:cf:d1:07:4d:48:72:17:66:85:8a:
                    80:be:6a:30:0c:8d:53:57:40:71:5e:44:bc:c3:56:
                    e5:91:a3:d1:71:fb:75:ee:13:d6:a7:1d:47:85:5b:
                    c7:b7:a1:e0:d7:63:e0:ce:a2:45:5b:28:43:e5:cb:
                    f7:3d:9a:99:52:00:7b:77:dd:4b:2d:1c:28:a7:03:
                    ed:34:a8:82:83:cd:c8:1a:9d:17:d4:f0:5c:13:94:
                    ad:7d:75:b7:1b:b6:53:33:56:31:ae:93:49:60:87:
                    ea:2d:bc:3b:d7:ca:b4:05:98:ef:b7:2e:fa:9a:aa:
                    1f:1f:bf:24:9c:43:b6:e2:2a:a9:01:37:94:be:17:
                    63:a9:3e:af:c9:ae:b4:ba:c2:d5:b0:1f:69:29:4e:
                    24:e1:6b:5e:fd:2d:ec:f2:3f:fe:e9:61:32:2b:0c:
                    fd:fd:b6:79:d9:90:3d:33:f1:fc:74:43:f1:f8:c6:
                    17:2b:a7:0a:45:bc:85:84:ca:1c:1c:f8:ca:74:2e:
                    58:3b:32:08:68:8c:b4:6b:f3:56:c0:54:44:6d:fb:
                    02:06:61:29:52:92:3a:4b:d9:3c:e7:24:7c:39:e4:
                    90:c4:7c:7f:d5:20:aa:72:8b:45:88:00:a5:d4:82:
                    d9:08:26:35:8e:a0:6f:5d:9e:6c:da:a5:c6:5f:dd:
                    14:9c:5d:89:d0:8f:bd:81:6c:93:45:08:6b:2e:a3:
                    5c:62:29:93:55:1d:28:33:b0:6f:5c:c5:39:67:4c:
                    95:b2:49:80:64:55:68:ed:2d:59:3b:cb:5f:6a:7c:
                    bb:67:21:47:ce:a4:f3:ab:2b:bd:da:74:f4:d9:d0:
                    fe:ed:7a:4e:3d:3d:1e:34:f6:44:82:98:30:f1:a0:
                    91:46:07
                Exponent: 65537 (0x10001)
        X509v3 extensions:
            X509v3 Key Usage: critical
                Certificate Sign, CRL Sign
            X509v3 Basic Constraints: critical
                CA:TRUE
            X509v3 Subject Key Identifier: 
                71:FB:20:F9:E0:83:CE:79:FA:59:2D:7C:3F:FC:8B:0D:81:35:80:20
            X509v3 Authority Key Identifier: 
                keyid:71:FB:20:F9:E0:83:CE:79:FA:59:2D:7C:3F:FC:8B:0D:81:35:80:20

    Signature Algorithm: sha1WithRSAEncryption
         99:49:5d:0f:1e:96:8c:5d:36:ee:33:38:e2:05:ba:50:87:3f:
         10:94:9e:85:e1:d5:30:a5:b9:cf:fe:8b:8f:fd:69:46:f1:96:
         64:7b:2b:25:f1:fa:92:ac:a9:93:bc:33:aa:b2:88:f1:c3:b2:
         f5:15:59:a5:6a:32:f6:95:85:a0:76:d4:d2:75:e5:58:42:1e:
         49:cc:02:23:f4:cc:b4:a7:5e:58:5c:66:15:bc:de:b7:ae:2d:
         b8:5c:9c:e4:fc:86:ed:de:54:8a:1e:ec:9f:81:cd:0a:86:6d:
         f1:1f:ac:37:0d:48:f9:93:db:37:24:ee:86:86:b6:da:ec:6e:
         15:c5:9a:07:cb:d4:bc:2d:ff:c3:3c:a9:d2:3f:be:43:03:72:
         18:d5:9f:39:26:ad:10:10:f3:9c:e5:70:15:18:56:06:15:0e:
         9f:b3:ab:c5:ae:b9:cc:70:8f:d0:9e:51:d2:f1:1b:b4:2a:87:
         86:46:0a:0b:37:42:c2:31:4b:ce:86:98:ce:0c:f8:f0:5b:5c:
         b0:32:c8:94:d9:ef:07:6f:b6:9f:f1:5e:7c:28:cf:4f:2c:5a:
         0c:07:72:16:12:0b:63:33:70:be:30:1c:42:98:6f:ac:6c:d7:
         0b:b1:a9:9b:9f:ab:c5:40:ad:f9:0b:62:1a:dd:c9:76:4a:87:
         4e:05:3d:ab:e6:8c:72:02:7b:03:f7:84:c7:d5:46:52:23:b2:
         ed:c4:16:8e:10:cd:4d:f3:dd:a6:bc:b4:98:c1:14:7b:26:b2:
         10:0b:2f:de:7f:30:11:32:ef:af:fe:f3:b0:3d:ee:6f:71:da:
         26:92:51:86:56:4e:6d:ca:bc:80:02:e1:b3:f6:d6:9d:c5:2d:
         f9:14:97:21:7a:ce:eb:dd:5b:23:05:b6:99:94:79:e5:c7:2f:
         8b:4c:e6:3d:a2:a5:d2:2b:82:c0:26:65:82:9a:29:1b:32:9f:
         75:88:42:90:79:0d:35:55:b2:50:eb:16:85:6b:0a:6e:b5:08:
         91:f6:81:23:66:04:08:33:31:48:e0:ee:df:d5:44:dc:75:ff:
         08:fe:e0:6a:ce:01:77:c8:d5:1a:52:96:95:07:06:d7:7c:47:
         20:7f:e7:20:ed:bd:f5:24:b9:ab:a9:c1:b8:3b:1c:8e:af:8a:
         40:55:0e:5b:49:c1:ae:c8:e3:62:c7:72:59:dd:63:5c:22:55:
         78:0a:dc:20:ca:5f:3b:25:92:30:01:d2:ca:91:76:95:b6:26:
         8a:48:ed:c1:7f:97:5e:92:49:53:94:f4:30:66:e1:e5:8d:f8:
         f8:7f:ed:ca:22:1d:37:93:e3:1e:44:53:65:ba:80:d2:27:eb:
         c7:a4:c2:64:77:13:aa:b9
-----BEGIN CERTIFICATE-----
MIIFhjCCA26gAwIBAgIBATANBgkqhkiG9w0BAQUFADBUMRwwGgYDVQQKDBNVVE0g
KDAwMDAwMDAwMDAwMDApMR4wHAYDVQQLDBVVVE0gUm9vdCBDQSBDdXJzIGVHb3Yx
FDASBgNVBAMMC1VUTSBSb290IENBMB4XDTIwMDkyOTA5MTg0NloXDTMwMDkyOTA5
MTg0NlowVDEcMBoGA1UECgwTVVRNICgwMDAwMDAwMDAwMDAwKTEeMBwGA1UECwwV
VVRNIFJvb3QgQ0EgQ3VycyBlR292MRQwEgYDVQQDDAtVVE0gUm9vdCBDQTCCAiIw
DQYJKoZIhvcNAQEBBQADggIPADCCAgoCggIBAKmUhkHljvnNKzPbxlAClxtYsfBI
WstS4Yao+Ux5RABCG/lR0DwSnyQVVHiRLS1f89AXuqRvy6aOF3PCrKEpBWu+sBvz
1U0ODNpxSWd6eP0Rrih+b2p0kNX/wG1TFYu2gZExKYJdg5jhN6pWI94p3eOUhho3
WEfaSyPp/wIgNDs2wHHvTBhCSy4Bm5XzmKKMBvmxwFwwTJXb21fDB1peg1kdVTKv
pzHXpSXoUCKHFarN8zgv+qqv4+PP0QdNSHIXZoWKgL5qMAyNU1dAcV5EvMNW5ZGj
0XH7de4T1qcdR4Vbx7eh4Ndj4M6iRVsoQ+XL9z2amVIAe3fdSy0cKKcD7TSogoPN
yBqdF9TwXBOUrX11txu2UzNWMa6TSWCH6i28O9fKtAWY77cu+pqqHx+/JJxDtuIq
qQE3lL4XY6k+r8mutLrC1bAfaSlOJOFrXv0t7PI//ulhMisM/f22edmQPTPx/HRD
8fjGFyunCkW8hYTKHBz4ynQuWDsyCGiMtGvzVsBURG37AgZhKVKSOkvZPOckfDnk
kMR8f9UgqnKLRYgApdSC2QgmNY6gb12ebNqlxl/dFJxdidCPvYFsk0UIay6jXGIp
k1UdKDOwb1zFOWdMlbJJgGRVaO0tWTvLX2p8u2chR86k86srvdp09NnQ/u16Tj09
HjT2RIKYMPGgkUYHAgMBAAGjYzBhMA4GA1UdDwEB/wQEAwIBBjAPBgNVHRMBAf8E
BTADAQH/MB0GA1UdDgQWBBRx+yD54IPOefpZLXw//IsNgTWAIDAfBgNVHSMEGDAW
gBRx+yD54IPOefpZLXw//IsNgTWAIDANBgkqhkiG9w0BAQUFAAOCAgEAmUldDx6W
jF027jM44gW6UIc/EJSeheHVMKW5z/6Lj/1pRvGWZHsrJfH6kqypk7wzqrKI8cOy
9RVZpWoy9pWFoHbU0nXlWEIeScwCI/TMtKdeWFxmFbzet64tuFyc5PyG7d5Uih7s
n4HNCoZt8R+sNw1I+ZPbNyTuhoa22uxuFcWaB8vUvC3/wzyp0j++QwNyGNWfOSat
EBDznOVwFRhWBhUOn7Orxa65zHCP0J5R0vEbtCqHhkYKCzdCwjFLzoaYzgz48Ftc
sDLIlNnvB2+2n/FefCjPTyxaDAdyFhILYzNwvjAcQphvrGzXC7Gpm5+rxUCt+Qti
Gt3JdkqHTgU9q+aMcgJ7A/eEx9VGUiOy7cQWjhDNTfPdpry0mMEUeyayEAsv3n8w
ETLvr/7zsD3ub3HaJpJRhlZObcq8gALhs/bWncUt+RSXIXrO691bIwW2mZR55ccv
i0zmPaKl0iuCwCZlgpopGzKfdYhCkHkNNVWyUOsWhWsKbrUIkfaBI2YECDMxSODu
39VE3HX/CP7gas4Bd8jVGlKWlQcG13xHIH/nIO299SS5q6nBuDscjq+KQFUOW0nB
rsjjYsdyWd1jXCJVeArcIMpfOyWSMAHSypF2lbYmikjtwX+XXpJJU5T0MGbh5Y34
+H/tyiIdN5PjHkRTZbqA0ifrx6TCZHcTqrk=
-----END CERTIFICATE-----
